target datalayout = "e-m:e-p270:32:32-p271:32:32-p272:64:64-i64:64-i128:128-f80:128-n8:16:32:64-S128"
target triple = "x86_64-pc-linux-gnu"

%struct.SN_env = type { ptr, i32, i32, i32, i32, i32, ptr, ptr }

@s_6 = internal constant [1 x i8] c"a", align 1
@s_7 = internal constant [1 x i8] c"e", align 1

; Function Attrs: nounwind uwtable
define internal i32 @r_R1(ptr noundef %0) #0 {
  %2 = alloca i32, align 4
  %3 = alloca ptr, align 8
  store ptr %0, ptr %3, align 8
  %4 = load ptr, ptr %3, align 8
  %5 = getelementptr inbounds nuw %struct.SN_env, ptr %4, i32 0, i32 7
  %6 = load ptr, ptr %5, align 8
  %7 = getelementptr inbounds i32, ptr %6, i64 0
  %8 = load i32, ptr %7, align 4
  %9 = load ptr, ptr %3, align 8
  %10 = getelementptr inbounds nuw %struct.SN_env, ptr %9, i32 0, i32 1
  %11 = load i32, ptr %10, align 8
  %12 = icmp sle i32 %8, %11
  br i1 %12, label %14, label %13

13:                                               ; preds = %1
  store i32 0, ptr %2, align 4
  br label %15

14:                                               ; preds = %1
  store i32 1, ptr %2, align 4
  br label %15

15:                                               ; preds = %14, %13
  %16 = load i32, ptr %2, align 4
  ret i32 %16
}

; Function Attrs: nounwind uwtable
define internal i32 @r_plural(ptr noundef %0) #0 {
  %2 = alloca i32, align 4
  %3 = alloca ptr, align 8
  %4 = alloca i32, align 4
  %5 = alloca i32, align 4
  %6 = alloca i32, align 4
  %7 = alloca i32, align 4
  %8 = alloca i32, align 4
  %9 = alloca i32, align 4
  store ptr %0, ptr %3, align 8
  call void @llvm.lifetime.start.p0(i64 4, ptr %4) #3
  %10 = load ptr, ptr %3, align 8
  %11 = getelementptr inbounds nuw %struct.SN_env, ptr %10, i32 0, i32 1
  %12 = load i32, ptr %11, align 8
  %13 = load ptr, ptr %3, align 8
  %14 = getelementptr inbounds nuw %struct.SN_env, ptr %13, i32 0, i32 5
  store i32 %12, ptr %14, align 8
  %15 = load ptr, ptr %3, align 8
  %16 = getelementptr inbounds nuw %struct.SN_env, ptr %15, i32 0, i32 1
  %17 = load i32, ptr %16, align 8
  %18 = load ptr, ptr %3, align 8
  %19 = getelementptr inbounds nuw %struct.SN_env, ptr %18, i32 0, i32 3
  %20 = load i32, ptr %19, align 8
  %21 = icmp sle i32 %17, %20
  br i1 %21, label %35, label %22

22:                                               ; preds = %1
  %23 = load ptr, ptr %3, align 8
  %24 = getelementptr inbounds nuw %struct.SN_env, ptr %23, i32 0, i32 0
  %25 = load ptr, ptr %24, align 8
  %26 = load ptr, ptr %3, align 8
  %27 = getelementptr inbounds nuw %struct.SN_env, ptr %26, i32 0, i32 1
  %28 = load i32, ptr %27, align 8
  %29 = sub i32 %28, 1
  %30 = sext i32 %29 to i64
  %31 = getelementptr inbounds i8, ptr %25, i64 %30
  %32 = load i8, ptr %31, align 1
  %33 = zext i8 %32 to i32
  %34 = icmp ne i32 %33, 107
  br i1 %34, label %35, label %36

35:                                               ; preds = %22, %1
  store i32 0, ptr %2, align 4
  store i32 1, ptr %5, align 4
  br label %93

36:                                               ; preds = %22
  %37 = load ptr, ptr %3, align 8
  %38 = call i32 @find_among_b(ptr noundef %37, ptr noundef @a_8, i32 noundef 7)
  store i32 %38, ptr %4, align 4
  %39 = load i32, ptr %4, align 4
  %40 = icmp ne i32 %39, 0
  br i1 %40, label %42, label %41

41:                                               ; preds = %36
  store i32 0, ptr %2, align 4
  store i32 1, ptr %5, align 4
  br label %93

42:                                               ; preds = %36
  %43 = load ptr, ptr %3, align 8
  %44 = getelementptr inbounds nuw %struct.SN_env, ptr %43, i32 0, i32 1
  %45 = load i32, ptr %44, align 8
  %46 = load ptr, ptr %3, align 8
  %47 = getelementptr inbounds nuw %struct.SN_env, ptr %46, i32 0, i32 4
  store i32 %45, ptr %47, align 4
  call void @llvm.lifetime.start.p0(i64 4, ptr %6) #3
  %48 = load ptr, ptr %3, align 8
  %49 = call i32 @r_R1(ptr noundef %48)
  store i32 %49, ptr %6, align 4
  %50 = load i32, ptr %6, align 4
  %51 = icmp sle i32 %50, 0
  br i1 %51, label %52, label %54

52:                                               ; preds = %42
  %53 = load i32, ptr %6, align 4
  store i32 %53, ptr %2, align 4
  store i32 1, ptr %5, align 4
  br label %55

54:                                               ; preds = %42
  store i32 0, ptr %5, align 4
  br label %55

55:                                               ; preds = %54, %52
  call void @llvm.lifetime.end.p0(i64 4, ptr %6) #3
  %56 = load i32, ptr %5, align 4
  switch i32 %56, label %93 [
    i32 0, label %57
  ]

57:                                               ; preds = %55
  %58 = load i32, ptr %4, align 4
  switch i32 %58, label %92 [
    i32 1, label %59
    i32 2, label %70
    i32 3, label %81
  ]

59:                                               ; preds = %57
  call void @llvm.lifetime.start.p0(i64 4, ptr %7) #3
  %60 = load ptr, ptr %3, align 8
  %61 = call i32 @slice_from_s(ptr noundef %60, i32 noundef 1, ptr noundef @s_6)
  store i32 %61, ptr %7, align 4
  %62 = load i32, ptr %7, align 4
  %63 = icmp slt i32 %62, 0
  br i1 %63, label %64, label %66

64:                                               ; preds = %59
  %65 = load i32, ptr %7, align 4
  store i32 %65, ptr %2, align 4
  store i32 1, ptr %5, align 4
  br label %67

66:                                               ; preds = %59
  store i32 0, ptr %5, align 4
  br label %67

67:                                               ; preds = %66, %64
  call void @llvm.lifetime.end.p0(i64 4, ptr %7) #3
  %68 = load i32, ptr %5, align 4
  switch i32 %68, label %93 [
    i32 0, label %69
  ]

69:                                               ; preds = %67
  br label %92

70:                                               ; preds = %57
  call void @llvm.lifetime.start.p0(i64 4, ptr %8) #3
  %71 = load ptr, ptr %3, align 8
  %72 = call i32 @slice_from_s(ptr noundef %71, i32 noundef 1, ptr noundef @s_7)
  store i32 %72, ptr %8, align 4
  %73 = load i32, ptr %8, align 4
  %74 = icmp slt i32 %73, 0
  br i1 %74, label %75, label %77

75:                                               ; preds = %70
  %76 = load i32, ptr %8, align 4
  store i32 %76, ptr %2, align 4
  store i32 1, ptr %5, align 4
  br label %78

77:                                               ; preds = %70
  store i32 0, ptr %5, align 4
  br label %78

78:                                               ; preds = %77, %75
  call void @llvm.lifetime.end.p0(i64 4, ptr %8) #3
  %79 = load i32, ptr %5, align 4
  switch i32 %79, label %93 [
    i32 0, label %80
  ]

80:                                               ; preds = %78
  br label %92

81:                                               ; preds = %57
  call void @llvm.lifetime.start.p0(i64 4, ptr %9) #3
  %82 = load ptr, ptr %3, align 8
  %83 = call i32 @slice_del(ptr noundef %82)
  store i32 %83, ptr %9, align 4
  %84 = load i32, ptr %9, align 4
  %85 = icmp slt i32 %84, 0
  br i1 %85, label %86, label %88

86:                                               ; preds = %81
  %87 = load i32, ptr %9, align 4
  store i32 %87, ptr %2, align 4
  store i32 1, ptr %5, align 4
  br label %89

88:                                               ; preds = %81
  store i32 0, ptr %5, align 4
  br label %89

89:                                               ; preds = %88, %86
  call void @llvm.lifetime.end.p0(i64 4, ptr %9) #3
  %90 = load i32, ptr %5, align 4
  switch i32 %90, label %93 [
    i32 0, label %91
  ]

91:                                               ; preds = %89
  br label %92

92:                                               ; preds = %57, %91, %80, %69
  store i32 1, ptr %2, align 4
  store i32 1, ptr %5, align 4
  br label %93

93:                                               ; preds = %92, %89, %78, %67, %55, %41, %35
  call void @llvm.lifetime.end.p0(i64 4, ptr %4) #3
  %94 = load i32, ptr %2, align 4
  ret i32 %94
}