; Function Attrs: nounwind uwtable
define internal fastcc range(i32 -2147483648, 2) i32 @r_plural(ptr noundef initializes((24, 28)) %0) unnamed_addr #0 {
  %2 = getelementptr inbounds nuw i8, ptr %0, i64 8
  %3 = load i32, ptr %2, align 8
  %4 = getelementptr inbounds nuw i8, ptr %0, i64 24
  store i32 %3, ptr %4, align 8
  %5 = getelementptr inbounds nuw i8, ptr %0, i64 16
  %6 = load i32, ptr %5, align 8
  %.not = icmp sgt i32 %3, %6
  br i1 %.not, label %7, label %30

7:                                                ; preds = %1
  %8 = load ptr, ptr %0, align 8
  %9 = sext i32 %3 to i64
  %10 = getelementptr i8, ptr %8, i64 %9
  %11 = getelementptr i8, ptr %10, i64 -1
  %12 = load i8, ptr %11, align 1
  %.not39 = icmp eq i8 %12, 107
  br i1 %.not39, label %13, label %30

13:                                               ; preds = %7
  %14 = tail call i32 @find_among_b(ptr noundef nonnull %0, ptr noundef nonnull @a_8, i32 noundef 7) #2
  %.not40 = icmp eq i32 %14, 0
  br i1 %.not40, label %30, label %15

15:                                               ; preds = %13
  %16 = load i32, ptr %2, align 8
  %17 = getelementptr inbounds nuw i8, ptr %0, i64 20
  store i32 %16, ptr %17, align 4
  %18 = getelementptr i8, ptr %0, i64 40
  %.val44 = load ptr, ptr %18, align 8
  %.val44.val = load i32, ptr %.val44, align 4
  %.not.i.not = icmp sgt i32 %.val44.val, %16
  br i1 %.not.i.not, label %30, label %19

19:                                               ; preds = %15
  switch i32 %14, label %29 [
    i32 1, label %20
    i32 2, label %23
    i32 3, label %26
  ]

20:                                               ; preds = %19
  %21 = tail call i32 @slice_from_s(ptr noundef nonnull %0, i32 noundef 1, ptr noundef nonnull @s_6) #2
  %22 = icmp sgt i32 %21, -1
  br i1 %22, label %29, label %30

23:                                               ; preds = %19
  %24 = tail call i32 @slice_from_s(ptr noundef nonnull %0, i32 noundef 1, ptr noundef nonnull @s_7) #2
  %25 = icmp sgt i32 %24, -1
  br i1 %25, label %29, label %30

26:                                               ; preds = %19
  %27 = tail call i32 @slice_del(ptr noundef nonnull %0) #2
  %28 = icmp sgt i32 %27, -1
  br i1 %28, label %29, label %30

29:                                               ; preds = %26, %23, %20, %19
  br label %30

30:                                               ; preds = %13, %1, %7, %20, %23, %26, %15, %29
  %.0 = phi i32 [ 1, %29 ], [ %27, %26 ], [ %24, %23 ], [ %21, %20 ], [ 0, %15 ], [ 0, %7 ], [ 0, %1 ], [ 0, %13 ]
  ret i32 %.0
}